%"class.std::ios_base::Init" = type { i8 }
%"class.std::__cxx11::basic_string" = type { %"struct.std::__cxx11::basic_string<char>::_Alloc_hider", i64, %union.anon }
%"struct.std::__cxx11::basic_string<char>::_Alloc_hider" = type { i8* }
%union.anon = type { i64, [8 x i8] }
%"class.std::allocator" = type { i8 }

$_ZSteqIcEN9__gnu_cxx11__enable_ifIXsr9__is_charIT_EE7__valueEbE6__typeERKNSt7__cxx1112basic_stringIS2_St11char_traitsIS2_ESaIS2_EEESC_ = comdat any

$_ZNSt11char_traitsIcE7compareEPKcS2_m = comdat any

$__clang_call_terminate = comdat any

@_ZStL8__ioinit = internal global %"class.std::ios_base::Init" zeroinitializer, align 1
@__dso_handle = external hidden global i8
@__const._Z11check_inputRKNSt7__cxx1112basic_stringIcSt11char_traitsIcESaIcEEERS4_.bytes = private unnamed_addr constant [44 x i8] c"\17E\C2\9B\C3\93T\C3\B2[\C3\9D\C2\85PS\C2\B7\C2\80\0C\C2\95\C3\A8}\C2\93\C2\BE=\C2\91\\I\02\C2\8E\1B\05j(\C3\9C", align 16
@llvm.global_ctors = appending global [1 x { i32, void ()*, i8* }] [{ i32, void ()*, i8* } { i32 65535, void ()* @_GLOBAL__sub_I_convert.cpp, i8* null }]

; Function Attrs: noinline uwtable
define internal void @__cxx_global_var_init() #0 section ".text.startup" {
  call void @_ZNSt8ios_base4InitC1Ev(%"class.std::ios_base::Init"* noundef nonnull align 1 dereferenceable(1) @_ZStL8__ioinit)
  %1 = call i32 @__cxa_atexit(void (i8*)* bitcast (void (%"class.std::ios_base::Init"*)* @_ZNSt8ios_base4InitD1Ev to void (i8*)*), i8* getelementptr inbounds (%"class.std::ios_base::Init", %"class.std::ios_base::Init"* @_ZStL8__ioinit, i32 0, i32 0), i8* @__dso_handle) #3
  ret void
}

declare void @_ZNSt8ios_base4InitC1Ev(%"class.std::ios_base::Init"* noundef nonnull align 1 dereferenceable(1)) unnamed_addr #1

; Function Attrs: nounwind
declare void @_ZNSt8ios_base4InitD1Ev(%"class.std::ios_base::Init"* noundef nonnull align 1 dereferenceable(1)) unnamed_addr #2

; Function Attrs: nounwind
declare i32 @__cxa_atexit(void (i8*)*, i8*, i8*) #3

; Function Attrs: mustprogress noinline optnone uwtable
define dso_local noundef i32 @_Z11check_inputRKNSt7__cxx1112basic_stringIcSt11char_traitsIcESaIcEEERS4_(%"class.std::__cxx11::basic_string"* noundef nonnull align 8 dereferenceable(32) %0, %"class.std::__cxx11::basic_string"* noundef nonnull align 8 dereferenceable(32) %1) #4 personality i8* bitcast (i32 (...)* @__gxx_personality_v0 to i8*) {
  %3 = alloca i32, align 4
  %4 = alloca %"class.std::__cxx11::basic_string"*, align 8
  %5 = alloca %"class.std::__cxx11::basic_string"*, align 8
  %6 = alloca [44 x i8], align 16
  %7 = alloca %"class.std::__cxx11::basic_string", align 8
  %8 = alloca %"class.std::allocator", align 1
  %9 = alloca i8*, align 8
  %10 = alloca i32, align 4
  %11 = alloca %"class.std::__cxx11::basic_string", align 8
  %12 = alloca i32, align 4
  %13 = alloca i32, align 4
  %14 = alloca i32, align 4
  %15 = alloca i8, align 1
  %16 = alloca i32, align 4
  store %"class.std::__cxx11::basic_string"* %0, %"class.std::__cxx11::basic_string"** %4, align 8
  store %"class.std::__cxx11::basic_string"* %1, %"class.std::__cxx11::basic_string"** %5, align 8
  %17 = bitcast [44 x i8]* %6 to i8*
  call void @llvm.memcpy.p0i8.p0i8.i64(i8* align 16 %17, i8* align 16 getelementptr inbounds ([44 x i8], [44 x i8]* @__const._Z11check_inputRKNSt7__cxx1112basic_stringIcSt11char_traitsIcESaIcEEERS4_.bytes, i32 0, i32 0), i64 44, i1 false)
  %18 = getelementptr inbounds [44 x i8], [44 x i8]* %6, i64 0, i64 0
  call void @_ZNSaIcEC1Ev(%"class.std::allocator"* noundef nonnull align 1 dereferenceable(1) %8) #3
  invoke void @_ZNSt7__cxx1112basic_stringIcSt11char_traitsIcESaIcEEC1EPKcmRKS3_(%"class.std::__cxx11::basic_string"* noundef nonnull align 8 dereferenceable(32) %7, i8* noundef %18, i64 noundef 44, %"class.std::allocator"* noundef nonnull align 1 dereferenceable(1) %8)
          to label %19 unwind label %49

19:                                               ; preds = %2
  call void @_ZNSaIcED1Ev(%"class.std::allocator"* noundef nonnull align 1 dereferenceable(1) %8) #3
  call void @_ZNSt7__cxx1112basic_stringIcSt11char_traitsIcESaIcEEC1Ev(%"class.std::__cxx11::basic_string"* noundef nonnull align 8 dereferenceable(32) %11) #3
  %20 = load %"class.std::__cxx11::basic_string"*, %"class.std::__cxx11::basic_string"** %4, align 8
  %21 = invoke noundef nonnull align 8 dereferenceable(32) %"class.std::__cxx11::basic_string"* @_ZNSt7__cxx1112basic_stringIcSt11char_traitsIcESaIcEE6assignERKS4_(%"class.std::__cxx11::basic_string"* noundef nonnull align 8 dereferenceable(32) %11, %"class.std::__cxx11::basic_string"* noundef nonnull align 8 dereferenceable(32) %20)
          to label %22 unwind label %53

22:                                               ; preds = %19
  store i32 0, i32* %12, align 4
  br label %23

23:                                               ; preds = %46, %22
  %24 = load i32, i32* %12, align 4
  %25 = sext i32 %24 to i64
  %26 = load %"class.std::__cxx11::basic_string"*, %"class.std::__cxx11::basic_string"** %4, align 8
  %27 = call noundef i64 @_ZNKSt7__cxx1112basic_stringIcSt11char_traitsIcESaIcEE4sizeEv(%"class.std::__cxx11::basic_string"* noundef nonnull align 8 dereferenceable(32) %26) #3
  %28 = sub i64 %27, 1
  %29 = icmp ult i64 %25, %28
  br i1 %29, label %30, label %57

30:                                               ; preds = %23
  %31 = load i32, i32* %12, align 4
  %32 = add nsw i32 %31, 1
  %33 = sext i32 %32 to i64
  %34 = invoke noundef nonnull align 1 dereferenceable(1) i8* @_ZNSt7__cxx1112basic_stringIcSt11char_traitsIcESaIcEEixEm(%"class.std::__cxx11::basic_string"* noundef nonnull align 8 dereferenceable(32) %11, i64 noundef %33)
          to label %35 unwind label %53

35:                                               ; preds = %30
  %36 = load i8, i8* %34, align 1
  %37 = sext i8 %36 to i32
  %38 = load i32, i32* %12, align 4
  %39 = sext i32 %38 to i64
  %40 = invoke noundef nonnull align 1 dereferenceable(1) i8* @_ZNSt7__cxx1112basic_stringIcSt11char_traitsIcESaIcEEixEm(%"class.std::__cxx11::basic_string"* noundef nonnull align 8 dereferenceable(32) %11, i64 noundef %39)
          to label %41 unwind label %53

41:                                               ; preds = %35
  %42 = load i8, i8* %40, align 1
  %43 = sext i8 %42 to i32
  %44 = xor i32 %43, %37
  %45 = trunc i32 %44 to i8
  store i8 %45, i8* %40, align 1
  br label %46

46:                                               ; preds = %41
  %47 = load i32, i32* %12, align 4
  %48 = add nsw i32 %47, 1
  store i32 %48, i32* %12, align 4
  br label %23, !llvm.loop !6

49:                                               ; preds = %2
  %50 = landingpad { i8*, i32 }
          cleanup
  %51 = extractvalue { i8*, i32 } %50, 0
  store i8* %51, i8** %9, align 8
  %52 = extractvalue { i8*, i32 } %50, 1
  store i32 %52, i32* %10, align 4
  call void @_ZNSaIcED1Ev(%"class.std::allocator"* noundef nonnull align 1 dereferenceable(1) %8) #3
  br label %100

53:                                               ; preds = %75, %67, %35, %30, %19
  %54 = landingpad { i8*, i32 }
          cleanup
  %55 = extractvalue { i8*, i32 } %54, 0
  store i8* %55, i8** %9, align 8
  %56 = extractvalue { i8*, i32 } %54, 1
  store i32 %56, i32* %10, align 4
  call void @_ZNSt7__cxx1112basic_stringIcSt11char_traitsIcESaIcEED1Ev(%"class.std::__cxx11::basic_string"* noundef nonnull align 8 dereferenceable(32) %11) #3
  call void @_ZNSt7__cxx1112basic_stringIcSt11char_traitsIcESaIcEED1Ev(%"class.std::__cxx11::basic_string"* noundef nonnull align 8 dereferenceable(32) %7) #3
  br label %100

57:                                               ; preds = %23
  %58 = load %"class.std::__cxx11::basic_string"*, %"class.std::__cxx11::basic_string"** %5, align 8
  %59 = call noundef i64 @_ZNKSt7__cxx1112basic_stringIcSt11char_traitsIcESaIcEE6lengthEv(%"class.std::__cxx11::basic_string"* noundef nonnull align 8 dereferenceable(32) %58) #3
  %60 = trunc i64 %59 to i32
  store i32 %60, i32* %13, align 4
  store i32 0, i32* %14, align 4
  br label %61

61:                                               ; preds = %91, %57
  %62 = load i32, i32* %14, align 4
  %63 = sext i32 %62 to i64
  %64 = load %"class.std::__cxx11::basic_string"*, %"class.std::__cxx11::basic_string"** %4, align 8
  %65 = call noundef i64 @_ZNKSt7__cxx1112basic_stringIcSt11char_traitsIcESaIcEE4sizeEv(%"class.std::__cxx11::basic_string"* noundef nonnull align 8 dereferenceable(32) %64) #3
  %66 = icmp ult i64 %63, %65
  br i1 %66, label %67, label %94

67:                                               ; preds = %61
  %68 = load i32, i32* %14, align 4
  %69 = load %"class.std::__cxx11::basic_string"*, %"class.std::__cxx11::basic_string"** %5, align 8
  %70 = load i32, i32* %14, align 4
  %71 = load i32, i32* %13, align 4
  %72 = srem i32 %70, %71
  %73 = sext i32 %72 to i64
  %74 = invoke noundef nonnull align 1 dereferenceable(1) i8* @_ZNSt7__cxx1112basic_stringIcSt11char_traitsIcESaIcEEixEm(%"class.std::__cxx11::basic_string"* noundef nonnull align 8 dereferenceable(32) %69, i64 noundef %73)
          to label %75 unwind label %53

75:                                               ; preds = %67
  %76 = load i8, i8* %74, align 1
  %77 = sext i8 %76 to i32
  %78 = mul nsw i32 %68, %77
  %79 = srem i32 %78, 256
  %80 = trunc i32 %79 to i8
  store i8 %80, i8* %15, align 1
  %81 = load i8, i8* %15, align 1
  %82 = zext i8 %81 to i32
  %83 = load i32, i32* %14, align 4
  %84 = sext i32 %83 to i64
  %85 = invoke noundef nonnull align 1 dereferenceable(1) i8* @_ZNSt7__cxx1112basic_stringIcSt11char_traitsIcESaIcEEixEm(%"class.std::__cxx11::basic_string"* noundef nonnull align 8 dereferenceable(32) %11, i64 noundef %84)
          to label %86 unwind label %53

86:                                               ; preds = %75
  %87 = load i8, i8* %85, align 1
  %88 = sext i8 %87 to i32
  %89 = xor i32 %88, %82
  %90 = trunc i32 %89 to i8
  store i8 %90, i8* %85, align 1
  br label %91

91:                                               ; preds = %86
  %92 = load i32, i32* %14, align 4
  %93 = add nsw i32 %92, 1
  store i32 %93, i32* %14, align 4
  br label %61, !llvm.loop !8

94:                                               ; preds = %61
  %95 = call noundef zeroext i1 @_ZSteqIcEN9__gnu_cxx11__enable_ifIXsr9__is_charIT_EE7__valueEbE6__typeERKNSt7__cxx1112basic_stringIS2_St11char_traitsIS2_ESaIS2_EEESC_(%"class.std::__cxx11::basic_string"* noundef nonnull align 8 dereferenceable(32) %11, %"class.std::__cxx11::basic_string"* noundef nonnull align 8 dereferenceable(32) %7) #3
  br i1 %95, label %96, label %97

96:                                               ; preds = %94
  store i32 1, i32* %3, align 4
  store i32 1, i32* %16, align 4
  br label %98

97:                                               ; preds = %94
  store i32 0, i32* %3, align 4
  store i32 1, i32* %16, align 4
  br label %98

98:                                               ; preds = %97, %96
  call void @_ZNSt7__cxx1112basic_stringIcSt11char_traitsIcESaIcEED1Ev(%"class.std::__cxx11::basic_string"* noundef nonnull align 8 dereferenceable(32) %11) #3
  call void @_ZNSt7__cxx1112basic_stringIcSt11char_traitsIcESaIcEED1Ev(%"class.std::__cxx11::basic_string"* noundef nonnull align 8 dereferenceable(32) %7) #3
  %99 = load i32, i32* %3, align 4
  ret i32 %99

100:                                              ; preds = %53, %49
  %101 = load i8*, i8** %9, align 8
  %102 = load i32, i32* %10, align 4
  %103 = insertvalue { i8*, i32 } undef, i8* %101, 0
  %104 = insertvalue { i8*, i32 } %103, i32 %102, 1
  resume { i8*, i32 } %104
}

; Function Attrs: argmemonly nofree nounwind willreturn
declare void @llvm.memcpy.p0i8.p0i8.i64(i8* noalias nocapture writeonly, i8* noalias nocapture readonly, i64, i1 immarg) #5

; Function Attrs: nounwind
declare void @_ZNSaIcEC1Ev(%"class.std::allocator"* noundef nonnull align 1 dereferenceable(1)) unnamed_addr #2

declare void @_ZNSt7__cxx1112basic_stringIcSt11char_traitsIcESaIcEEC1EPKcmRKS3_(%"class.std::__cxx11::basic_string"* noundef nonnull align 8 dereferenceable(32), i8* noundef, i64 noundef, %"class.std::allocator"* noundef nonnull align 1 dereferenceable(1)) unnamed_addr #1

declare i32 @__gxx_personality_v0(...)

; Function Attrs: nounwind
declare void @_ZNSaIcED1Ev(%"class.std::allocator"* noundef nonnull align 1 dereferenceable(1)) unnamed_addr #2

; Function Attrs: nounwind
declare void @_ZNSt7__cxx1112basic_stringIcSt11char_traitsIcESaIcEEC1Ev(%"class.std::__cxx11::basic_string"* noundef nonnull align 8 dereferenceable(32)) unnamed_addr #2

declare noundef nonnull align 8 dereferenceable(32) %"class.std::__cxx11::basic_string"* @_ZNSt7__cxx1112basic_stringIcSt11char_traitsIcESaIcEE6assignERKS4_(%"class.std::__cxx11::basic_string"* noundef nonnull align 8 dereferenceable(32), %"class.std::__cxx11::basic_string"* noundef nonnull align 8 dereferenceable(32)) #1

; Function Attrs: nounwind
declare noundef i64 @_ZNKSt7__cxx1112basic_stringIcSt11char_traitsIcESaIcEE4sizeEv(%"class.std::__cxx11::basic_string"* noundef nonnull align 8 dereferenceable(32)) #2

declare noundef nonnull align 1 dereferenceable(1) i8* @_ZNSt7__cxx1112basic_stringIcSt11char_traitsIcESaIcEEixEm(%"class.std::__cxx11::basic_string"* noundef nonnull align 8 dereferenceable(32), i64 noundef) #1

; Function Attrs: nounwind
declare noundef i64 @_ZNKSt7__cxx1112basic_stringIcSt11char_traitsIcESaIcEE6lengthEv(%"class.std::__cxx11::basic_string"* noundef nonnull align 8 dereferenceable(32)) #2

; Function Attrs: mustprogress noinline nounwind optnone uwtable
define linkonce_odr dso_local noundef zeroext i1 @_ZSteqIcEN9__gnu_cxx11__enable_ifIXsr9__is_charIT_EE7__valueEbE6__typeERKNSt7__cxx1112basic_stringIS2_St11char_traitsIS2_ESaIS2_EEESC_(%"class.std::__cxx11::basic_string"* noundef nonnull align 8 dereferenceable(32) %0, %"class.std::__cxx11::basic_string"* noundef nonnull align 8 dereferenceable(32) %1) #6 comdat personality i8* bitcast (i32 (...)* @__gxx_personality_v0 to i8*) {
  %3 = alloca %"class.std::__cxx11::basic_string"*, align 8
  %4 = alloca %"class.std::__cxx11::basic_string"*, align 8
  store %"class.std::__cxx11::basic_string"* %0, %"class.std::__cxx11::basic_string"** %3, align 8
  store %"class.std::__cxx11::basic_string"* %1, %"class.std::__cxx11::basic_string"** %4, align 8
  %5 = load %"class.std::__cxx11::basic_string"*, %"class.std::__cxx11::basic_string"** %3, align 8
  %6 = call noundef i64 @_ZNKSt7__cxx1112basic_stringIcSt11char_traitsIcESaIcEE4sizeEv(%"class.std::__cxx11::basic_string"* noundef nonnull align 8 dereferenceable(32) %5) #3
  %7 = load %"class.std::__cxx11::basic_string"*, %"class.std::__cxx11::basic_string"** %4, align 8
  %8 = call noundef i64 @_ZNKSt7__cxx1112basic_stringIcSt11char_traitsIcESaIcEE4sizeEv(%"class.std::__cxx11::basic_string"* noundef nonnull align 8 dereferenceable(32) %7) #3
  %9 = icmp eq i64 %6, %8
  br i1 %9, label %10, label %21

10:                                               ; preds = %2
  %11 = load %"class.std::__cxx11::basic_string"*, %"class.std::__cxx11::basic_string"** %3, align 8
  %12 = call noundef i8* @_ZNKSt7__cxx1112basic_stringIcSt11char_traitsIcESaIcEE4dataEv(%"class.std::__cxx11::basic_string"* noundef nonnull align 8 dereferenceable(32) %11) #3
  %13 = load %"class.std::__cxx11::basic_string"*, %"class.std::__cxx11::basic_string"** %4, align 8
  %14 = call noundef i8* @_ZNKSt7__cxx1112basic_stringIcSt11char_traitsIcESaIcEE4dataEv(%"class.std::__cxx11::basic_string"* noundef nonnull align 8 dereferenceable(32) %13) #3
  %15 = load %"class.std::__cxx11::basic_string"*, %"class.std::__cxx11::basic_string"** %3, align 8
  %16 = call noundef i64 @_ZNKSt7__cxx1112basic_stringIcSt11char_traitsIcESaIcEE4sizeEv(%"class.std::__cxx11::basic_string"* noundef nonnull align 8 dereferenceable(32) %15) #3
  %17 = invoke noundef i32 @_ZNSt11char_traitsIcE7compareEPKcS2_m(i8* noundef %12, i8* noundef %14, i64 noundef %16)
          to label %18 unwind label %23

18:                                               ; preds = %10
  %19 = icmp ne i32 %17, 0
  %20 = xor i1 %19, true
  br label %21

21:                                               ; preds = %18, %2
  %22 = phi i1 [ false, %2 ], [ %20, %18 ]
  ret i1 %22

23:                                               ; preds = %10
  %24 = landingpad { i8*, i32 }
          catch i8* null
  %25 = extractvalue { i8*, i32 } %24, 0
  call void @__clang_call_terminate(i8* %25) #8
  unreachable
}

; Function Attrs: nounwind
declare void @_ZNSt7__cxx1112basic_stringIcSt11char_traitsIcESaIcEED1Ev(%"class.std::__cxx11::basic_string"* noundef nonnull align 8 dereferenceable(32)) unnamed_addr #2

; Function Attrs: mustprogress noinline nounwind optnone uwtable
define linkonce_odr dso_local noundef i32 @_ZNSt11char_traitsIcE7compareEPKcS2_m(i8* noundef %0, i8* noundef %1, i64 noundef %2) #6 comdat align 2 {
  %4 = alloca i32, align 4
  %5 = alloca i8*, align 8
  %6 = alloca i8*, align 8
  %7 = alloca i64, align 8
  store i8* %0, i8** %5, align 8
  store i8* %1, i8** %6, align 8
  store i64 %2, i64* %7, align 8
  %8 = load i64, i64* %7, align 8
  %9 = icmp eq i64 %8, 0
  br i1 %9, label %10, label %11

10:                                               ; preds = %3
  store i32 0, i32* %4, align 4
  br label %16

11:                                               ; preds = %3
  %12 = load i8*, i8** %5, align 8
  %13 = load i8*, i8** %6, align 8
  %14 = load i64, i64* %7, align 8
  %15 = call i32 @memcmp(i8* noundef %12, i8* noundef %13, i64 noundef %14) #3
  store i32 %15, i32* %4, align 4
  br label %16

16:                                               ; preds = %11, %10
  %17 = load i32, i32* %4, align 4
  ret i32 %17
}

; Function Attrs: nounwind
declare noundef i8* @_ZNKSt7__cxx1112basic_stringIcSt11char_traitsIcESaIcEE4dataEv(%"class.std::__cxx11::basic_string"* noundef nonnull align 8 dereferenceable(32)) #2

; Function Attrs: noinline noreturn nounwind
define linkonce_odr hidden void @__clang_call_terminate(i8* %0) #7 comdat {
  %2 = call i8* @__cxa_begin_catch(i8* %0) #3
  call void @_ZSt9terminatev() #8
  unreachable
}

declare i8* @__cxa_begin_catch(i8*)

declare void @_ZSt9terminatev()

; Function Attrs: nounwind
declare i32 @memcmp(i8* noundef, i8* noundef, i64 noundef) #2

; Function Attrs: noinline uwtable
define internal void @_GLOBAL__sub_I_convert.cpp() #0 section ".text.startup" {
  call void @__cxx_global_var_init()
  ret void
}

attributes #0 = { noinline uwtable "frame-pointer"="all" "min-legal-vector-width"="0" "no-trapping-math"="true" "stack-protector-buffer-size"="8" "target-cpu"="x86-64" "target-features"="+cx8,+fxsr,+mmx,+sse,+sse2,+x87" "tune-cpu"="generic" }
attributes #1 = { "frame-pointer"="all" "no-trapping-math"="true" "stack-protector-buffer-size"="8" "target-cpu"="x86-64" "target-features"="+cx8,+fxsr,+mmx,+sse,+sse2,+x87" "tune-cpu"="generic" }
attributes #2 = { nounwind "frame-pointer"="all" "no-trapping-math"="true" "stack-protector-buffer-size"="8" "target-cpu"="x86-64" "target-features"="+cx8,+fxsr,+mmx,+sse,+sse2,+x87" "tune-cpu"="generic" }
attributes #3 = { nounwind }
attributes #4 = { mustprogress noinline optnone uwtable "frame-pointer"="all" "min-legal-vector-width"="0" "no-trapping-math"="true" "stack-protector-buffer-size"="8" "target-cpu"="x86-64" "target-features"="+cx8,+fxsr,+mmx,+sse,+sse2,+x87" "tune-cpu"="generic" }
attributes #5 = { argmemonly nofree nounwind willreturn }
attributes #6 = { mustprogress noinline nounwind optnone uwtable "frame-pointer"="all" "min-legal-vector-width"="0" "no-trapping-math"="true" "stack-protector-buffer-size"="8" "target-cpu"="x86-64" "target-features"="+cx8,+fxsr,+mmx,+sse,+sse2,+x87" "tune-cpu"="generic" }
attributes #7 = { noinline noreturn nounwind }
attributes #8 = { noreturn nounwind }

!llvm.module.flags = !{!0, !1, !2, !3, !4}
!llvm.ident = !{!5}

!0 = !{i32 1, !"wchar_size", i32 4}
!1 = !{i32 7, !"PIC Level", i32 2}
!2 = !{i32 7, !"PIE Level", i32 2}
!3 = !{i32 7, !"uwtable", i32 1}
!4 = !{i32 7, !"frame-pointer", i32 2}
!5 = !{!"Debian clang version 14.0.6-2"}
!6 = distinct !{!6, !7}
!7 = !{!"llvm.loop.mustprogress"}
!8 = distinct !{!8, !7}
